; Function Attrs: mustprogress nofree nounwind willreturn memory(write, inaccessiblemem: readwrite) uwtable
define void @Gia_ManQuantSetSuppStart(ptr noundef writeonly captures(none) initializes((976, 992)) %0) local_unnamed_addr #5 {
Vec_WrdPush.exit:
  %1 = getelementptr inbounds nuw i8, ptr %0, i64 976
  store i32 0, ptr %1, align 8, !tbaa !41
  %2 = getelementptr inbounds nuw i8, ptr %0, i64 980
  store i32 1, ptr %2, align 4, !tbaa !31
  %3 = tail call noalias dereferenceable_or_null(16) ptr @malloc(i64 noundef 16) #18
  %4 = getelementptr inbounds nuw i8, ptr %3, i64 4
  store i32 1000, ptr %3, align 8, !tbaa !42
  %5 = tail call noalias dereferenceable_or_null(8000) ptr @malloc(i64 noundef 8000) #18
  %6 = getelementptr inbounds nuw i8, ptr %3, i64 8
  store ptr %5, ptr %6, align 8, !tbaa !33
  %7 = getelementptr inbounds nuw i8, ptr %0, i64 984
  store ptr %3, ptr %7, align 8, !tbaa !32
  store i32 1, ptr %4, align 4, !tbaa !43
  store i64 0, ptr %5, align 8, !tbaa !38
  ret void
}